; Function Attrs: nounwind uwtable
define ptr @l_Lean_Compiler_LCNF_FunDecl_mapFVarM___rarg___lambda__3(ptr noundef %0, ptr noundef %1, ptr noundef %2, ptr noundef %3, ptr noundef %4, ptr noundef %5) #0 {
  %7 = getelementptr inbounds nuw i8, ptr %0, i64 32
  %8 = load ptr, ptr %7, align 8, !tbaa !4
  %9 = ptrtoint ptr %8 to i64
  %10 = and i64 %9, 1
  %.not = icmp eq i64 %10, 0
  br i1 %.not, label %11, label %lean_inc.exit29

11:                                               ; preds = %6
  %.val.i = load i32, ptr %8, align 4, !tbaa !8
  %12 = icmp sgt i32 %.val.i, 0
  br i1 %12, label %13, label %15, !prof !13

13:                                               ; preds = %11
  %14 = add nuw i32 %.val.i, 1
  store i32 %14, ptr %8, align 4, !tbaa !8
  br label %lean_inc.exit29

15:                                               ; preds = %11
  %.not.i = icmp eq i32 %.val.i, 0
  br i1 %.not.i, label %lean_inc.exit29, label %16

16:                                               ; preds = %15
  tail call void @lean_inc_ref_cold(ptr noundef nonnull %8) #4
  br label %lean_inc.exit29

lean_inc.exit29:                                  ; preds = %16, %15, %13, %6
  %17 = ptrtoint ptr %3 to i64
  %18 = and i64 %17, 1
  %.not42 = icmp eq i64 %18, 0
  br i1 %.not42, label %19, label %lean_inc.exit28

19:                                               ; preds = %lean_inc.exit29
  %.val.i30 = load i32, ptr %3, align 4, !tbaa !8
  %20 = icmp sgt i32 %.val.i30, 0
  br i1 %20, label %21, label %23, !prof !13

21:                                               ; preds = %19
  %22 = add nuw i32 %.val.i30, 1
  store i32 %22, ptr %3, align 4, !tbaa !8
  br label %lean_inc.exit28

23:                                               ; preds = %19
  %.not.i31 = icmp eq i32 %.val.i30, 0
  br i1 %.not.i31, label %lean_inc.exit28, label %24

24:                                               ; preds = %23
  tail call void @lean_inc_ref_cold(ptr noundef nonnull %3) #4
  br label %lean_inc.exit28

lean_inc.exit28:                                  ; preds = %24, %23, %21, %lean_inc.exit29
  %25 = ptrtoint ptr %2 to i64
  %26 = and i64 %25, 1
  %.not43 = icmp eq i64 %26, 0
  br i1 %.not43, label %27, label %lean_inc.exit27

27:                                               ; preds = %lean_inc.exit28
  %.val.i33 = load i32, ptr %2, align 4, !tbaa !8
  %28 = icmp sgt i32 %.val.i33, 0
  br i1 %28, label %29, label %31, !prof !13

29:                                               ; preds = %27
  %30 = add nuw i32 %.val.i33, 1
  store i32 %30, ptr %2, align 4, !tbaa !8
  br label %lean_inc.exit27

31:                                               ; preds = %27
  %.not.i34 = icmp eq i32 %.val.i33, 0
  br i1 %.not.i34, label %lean_inc.exit27, label %32

32:                                               ; preds = %31
  tail call void @lean_inc_ref_cold(ptr noundef nonnull %2) #4
  br label %lean_inc.exit27

lean_inc.exit27:                                  ; preds = %32, %31, %29, %lean_inc.exit28
  %33 = ptrtoint ptr %1 to i64
  %34 = and i64 %33, 1
  %.not44 = icmp eq i64 %34, 0
  br i1 %.not44, label %35, label %lean_inc.exit26

35:                                               ; preds = %lean_inc.exit27
  %.val.i36 = load i32, ptr %1, align 4, !tbaa !8
  %36 = icmp sgt i32 %.val.i36, 0
  br i1 %36, label %37, label %39, !prof !13

37:                                               ; preds = %35
  %38 = add nuw i32 %.val.i36, 1
  store i32 %38, ptr %1, align 4, !tbaa !8
  br label %lean_inc.exit26

39:                                               ; preds = %35
  %.not.i37 = icmp eq i32 %.val.i36, 0
  br i1 %.not.i37, label %lean_inc.exit26, label %40

40:                                               ; preds = %39
  tail call void @lean_inc_ref_cold(ptr noundef nonnull %1) #4
  br label %lean_inc.exit26

lean_inc.exit26:                                  ; preds = %40, %39, %37, %lean_inc.exit27
  %41 = tail call ptr @l_Lean_Compiler_LCNF_Expr_mapFVarM___rarg(ptr noundef %1, ptr noundef %2, ptr noundef %3, ptr noundef %8)
  %42 = ptrtoint ptr %4 to i64
  %43 = and i64 %42, 1
  %.not45 = icmp eq i64 %43, 0
  br i1 %.not45, label %44, label %lean_inc.exit

44:                                               ; preds = %lean_inc.exit26
  %.val.i39 = load i32, ptr %4, align 4, !tbaa !8
  %45 = icmp sgt i32 %.val.i39, 0
  br i1 %45, label %46, label %48, !prof !13

46:                                               ; preds = %44
  %47 = add nuw i32 %.val.i39, 1
  store i32 %47, ptr %4, align 4, !tbaa !8
  br label %lean_inc.exit

48:                                               ; preds = %44
  %.not.i40 = icmp eq i32 %.val.i39, 0
  br i1 %.not.i40, label %lean_inc.exit, label %49

49:                                               ; preds = %48
  tail call void @lean_inc_ref_cold(ptr noundef nonnull %4) #4
  br label %lean_inc.exit

lean_inc.exit:                                    ; preds = %49, %48, %46, %lean_inc.exit26
  tail call void @lean_inc_heartbeat() #4
  %50 = tail call noalias ptr @mi_malloc_small(i64 noundef 72) #4
  %51 = icmp eq ptr %50, null
  br i1 %51, label %52, label %lean_alloc_closure.exit

52:                                               ; preds = %lean_inc.exit
  tail call void @lean_internal_panic_out_of_memory() #5
  unreachable

lean_alloc_closure.exit:                          ; preds = %lean_inc.exit
  %53 = getelementptr inbounds nuw i8, ptr %50, i64 4
  store i32 1, ptr %50, align 4, !tbaa !8
  store i32 -184549304, ptr %53, align 4
  %54 = getelementptr inbounds nuw i8, ptr %50, i64 8
  store ptr @l_Lean_Compiler_LCNF_FunDecl_mapFVarM___rarg___lambda__2, ptr %54, align 8, !tbaa !4
  %55 = getelementptr inbounds nuw i8, ptr %50, i64 16
  store i16 7, ptr %55, align 8, !tbaa !11
  %56 = getelementptr inbounds nuw i8, ptr %50, i64 18
  store i16 6, ptr %56, align 2, !tbaa !11
  %57 = getelementptr inbounds nuw i8, ptr %50, i64 24
  store ptr %0, ptr %57, align 8, !tbaa !4
  %58 = getelementptr inbounds nuw i8, ptr %50, i64 32
  store ptr %1, ptr %58, align 8, !tbaa !4
  %59 = getelementptr inbounds nuw i8, ptr %50, i64 40
  store ptr %2, ptr %59, align 8, !tbaa !4
  %60 = getelementptr inbounds nuw i8, ptr %50, i64 48
  store ptr %3, ptr %60, align 8, !tbaa !4
  %61 = getelementptr inbounds nuw i8, ptr %50, i64 56
  store ptr %5, ptr %61, align 8, !tbaa !4
  %62 = getelementptr inbounds nuw i8, ptr %50, i64 64
  store ptr %4, ptr %62, align 8, !tbaa !4
  %63 = tail call ptr @lean_apply_4(ptr noundef %4, ptr noundef nonnull inttoptr (i64 1 to ptr), ptr noundef nonnull inttoptr (i64 1 to ptr), ptr noundef %41, ptr noundef nonnull %50) #4
  ret ptr %63
}